; ModuleID = 'source-C-CXX/36/577.c'
source_filename = "source-C-CXX/36/577.c"
target datalayout = "e-m:e-p270:32:32-p271:32:32-p272:64:64-i64:64-f80:128-n8:16:32:64-S128"
target triple = "x86_64-pc-linux-gnu"

%struct._IO_FILE = type { i32, i8*, i8*, i8*, i8*, i8*, i8*, i8*, i8*, i8*, i8*, i8*, %struct._IO_marker*, %struct._IO_FILE*, i32, i32, i64, i16, i8, [1 x i8], i8*, i64, %struct._IO_codecvt*, %struct._IO_wide_data*, %struct._IO_FILE*, i8*, i64, i32, [20 x i8] }
%struct._IO_marker = type opaque
%struct._IO_codecvt = type opaque
%struct._IO_wide_data = type opaque

@.str = private unnamed_addr constant [3 x i8] c"%d\00", align 1
@.str.1 = private unnamed_addr constant [3 x i8] c"%s\00", align 1
@.str.2 = private unnamed_addr constant [4 x i8] c"%c\0A\00", align 1
@stdin = external local_unnamed_addr global %struct._IO_FILE*, align 8
@str = private unnamed_addr constant [3 x i8] c"no\00", align 1

; Function Attrs: nofree nounwind sspstrong uwtable
define dso_local i32 @main() local_unnamed_addr #0 {
  %1 = alloca i32, align 4
  %2 = alloca [100000 x i8], align 16
  %3 = alloca [26 x i32], align 16
  %4 = bitcast i32* %1 to i8*
  call void @llvm.lifetime.start.p0i8(i64 4, i8* nonnull %4) #6
  %5 = call i32 (i8*, ...) @__isoc99_scanf(i8* getelementptr inbounds ([3 x i8], [3 x i8]* @.str, i64 0, i64 0), i32* nonnull %1)
  %6 = getelementptr inbounds [100000 x i8], [100000 x i8]* %2, i64 0, i64 0
  %7 = bitcast [26 x i32]* %3 to i8*
  %8 = load i32, i32* %1, align 4, !tbaa !5
  %9 = icmp sgt i32 %8, 0
  br i1 %9, label %15, label %10

10:                                               ; preds = %77, %0
  %11 = load %struct._IO_FILE*, %struct._IO_FILE** @stdin, align 8, !tbaa !9
  %12 = call i32 @getc(%struct._IO_FILE* %11) #6
  %13 = load %struct._IO_FILE*, %struct._IO_FILE** @stdin, align 8, !tbaa !9
  %14 = call i32 @getc(%struct._IO_FILE* %13) #6
  call void @llvm.lifetime.end.p0i8(i64 4, i8* nonnull %4) #6
  ret i32 0

15:                                               ; preds = %0, %77
  %16 = phi i32 [ %78, %77 ], [ 0, %0 ]
  call void @llvm.lifetime.start.p0i8(i64 100000, i8* nonnull %6) #6
  %17 = call i32 (i8*, ...) @__isoc99_scanf(i8* getelementptr inbounds ([3 x i8], [3 x i8]* @.str.1, i64 0, i64 0), i8* nonnull %6)
  call void @llvm.lifetime.start.p0i8(i64 104, i8* nonnull %7) #6
  call void @llvm.memset.p0i8.i64(i8* noundef nonnull align 16 dereferenceable(104) %7, i8 0, i64 104, i1 false)
  %18 = call i64 @strlen(i8* noundef nonnull %6) #7
  %19 = icmp eq i64 %18, 0
  br i1 %19, label %36, label %20

20:                                               ; preds = %15
  %21 = and i64 %18, 1
  %22 = icmp eq i64 %18, 1
  br i1 %22, label %25, label %23

23:                                               ; preds = %20
  %24 = and i64 %18, -2
  br label %39

25:                                               ; preds = %39, %20
  %26 = phi i64 [ 0, %20 ], [ %57, %39 ]
  %27 = icmp eq i64 %21, 0
  br i1 %27, label %36, label %28

28:                                               ; preds = %25
  %29 = getelementptr inbounds [100000 x i8], [100000 x i8]* %2, i64 0, i64 %26
  %30 = load i8, i8* %29, align 1, !tbaa !11
  %31 = sext i8 %30 to i64
  %32 = add nsw i64 %31, -97
  %33 = getelementptr inbounds [26 x i32], [26 x i32]* %3, i64 0, i64 %32
  %34 = load i32, i32* %33, align 4, !tbaa !5
  %35 = add nsw i32 %34, 1
  store i32 %35, i32* %33, align 4, !tbaa !5
  br label %36

36:                                               ; preds = %28, %25, %15
  %37 = call i64 @strlen(i8* noundef nonnull %6) #7
  %38 = icmp eq i64 %37, 0
  br i1 %38, label %75, label %62

39:                                               ; preds = %39, %23
  %40 = phi i64 [ 0, %23 ], [ %57, %39 ]
  %41 = phi i64 [ %24, %23 ], [ %58, %39 ]
  %42 = getelementptr inbounds [100000 x i8], [100000 x i8]* %2, i64 0, i64 %40
  %43 = load i8, i8* %42, align 2, !tbaa !11
  %44 = sext i8 %43 to i64
  %45 = add nsw i64 %44, -97
  %46 = getelementptr inbounds [26 x i32], [26 x i32]* %3, i64 0, i64 %45
  %47 = load i32, i32* %46, align 4, !tbaa !5
  %48 = add nsw i32 %47, 1
  store i32 %48, i32* %46, align 4, !tbaa !5
  %49 = or i64 %40, 1
  %50 = getelementptr inbounds [100000 x i8], [100000 x i8]* %2, i64 0, i64 %49
  %51 = load i8, i8* %50, align 1, !tbaa !11
  %52 = sext i8 %51 to i64
  %53 = add nsw i64 %52, -97
  %54 = getelementptr inbounds [26 x i32], [26 x i32]* %3, i64 0, i64 %53
  %55 = load i32, i32* %54, align 4, !tbaa !5
  %56 = add nsw i32 %55, 1
  store i32 %56, i32* %54, align 4, !tbaa !5
  %57 = add nuw nsw i64 %40, 2
  %58 = add i64 %41, -2
  %59 = icmp eq i64 %58, 0
  br i1 %59, label %25, label %39, !llvm.loop !12

60:                                               ; preds = %62
  %61 = icmp eq i64 %71, %37
  br i1 %61, label %75, label %62, !llvm.loop !14

62:                                               ; preds = %36, %60
  %63 = phi i64 [ %71, %60 ], [ 0, %36 ]
  %64 = getelementptr inbounds [100000 x i8], [100000 x i8]* %2, i64 0, i64 %63
  %65 = load i8, i8* %64, align 1, !tbaa !11
  %66 = sext i8 %65 to i64
  %67 = add nsw i64 %66, -97
  %68 = getelementptr inbounds [26 x i32], [26 x i32]* %3, i64 0, i64 %67
  %69 = load i32, i32* %68, align 4, !tbaa !5
  %70 = icmp eq i32 %69, 1
  %71 = add nuw i64 %63, 1
  br i1 %70, label %72, label %60

72:                                               ; preds = %62
  %73 = sext i8 %65 to i32
  %74 = call i32 (i8*, ...) @printf(i8* nonnull dereferenceable(1) getelementptr inbounds ([4 x i8], [4 x i8]* @.str.2, i64 0, i64 0), i32 %73)
  br label %77

75:                                               ; preds = %60, %36
  %76 = call i32 @puts(i8* nonnull dereferenceable(1) getelementptr inbounds ([3 x i8], [3 x i8]* @str, i64 0, i64 0))
  br label %77

77:                                               ; preds = %72, %75
  call void @llvm.lifetime.end.p0i8(i64 104, i8* nonnull %7) #6
  call void @llvm.lifetime.end.p0i8(i64 100000, i8* nonnull %6) #6
  %78 = add nuw nsw i32 %16, 1
  %79 = load i32, i32* %1, align 4, !tbaa !5
  %80 = icmp slt i32 %78, %79
  br i1 %80, label %15, label %10, !llvm.loop !15
}

; Function Attrs: argmemonly mustprogress nofree nosync nounwind willreturn
declare void @llvm.lifetime.start.p0i8(i64 immarg, i8* nocapture) #1

; Function Attrs: nofree nounwind
declare noundef i32 @__isoc99_scanf(i8* nocapture noundef readonly, ...) local_unnamed_addr #2

; Function Attrs: argmemonly mustprogress nofree nounwind willreturn writeonly
declare void @llvm.memset.p0i8.i64(i8* nocapture writeonly, i8, i64, i1 immarg) #3

; Function Attrs: argmemonly mustprogress nofree nounwind readonly willreturn
declare i64 @strlen(i8* nocapture) local_unnamed_addr #4

; Function Attrs: argmemonly mustprogress nofree nosync nounwind willreturn
declare void @llvm.lifetime.end.p0i8(i64 immarg, i8* nocapture) #1

; Function Attrs: nofree nounwind
declare noundef i32 @printf(i8* nocapture noundef readonly, ...) local_unnamed_addr #2

; Function Attrs: nofree nounwind
declare noundef i32 @getc(%struct._IO_FILE* nocapture noundef) local_unnamed_addr #2

; Function Attrs: nofree nounwind
declare noundef i32 @puts(i8* nocapture noundef readonly) local_unnamed_addr #5


!llvm.module.flags = !{!0, !1, !2, !3}
!llvm.ident = !{!4}

!0 = !{i32 1, !"wchar_size", i32 4}
!1 = !{i32 7, !"PIC Level", i32 2}
!2 = !{i32 7, !"PIE Level", i32 2}
!3 = !{i32 7, !"uwtable", i32 1}
!4 = !{!"clang version 13.0.0"}
!5 = !{!6, !6, i64 0}
!6 = !{!"int", !7, i64 0}
!7 = !{!"omnipotent char", !8, i64 0}
!8 = !{!"Simple C/C++ TBAA"}
!9 = !{!10, !10, i64 0}
!10 = !{!"any pointer", !7, i64 0}
!11 = !{!7, !7, i64 0}
!12 = distinct !{!12, !13}
!13 = !{!"llvm.loop.mustprogress"}
!14 = distinct !{!14, !13}
!15 = distinct !{!15, !13}
